target datalayout = "e-m:e-p270:32:32-p271:32:32-p272:64:64-i64:64-i128:128-f80:128-n8:16:32:64-S128"
target triple = "x86_64-pc-linux-gnu"

%struct.GVC_s = type { %struct.GVCOMMON_s, ptr, i8, ptr, i32, ptr, ptr, [5 x ptr], [5 x ptr], ptr, ptr, %struct.dtdisc_s_, ptr, %struct.gvplugin_active_textlayout_s, ptr, ptr, ptr, %struct.gvplugin_active_layout_s, ptr, ptr, ptr, %struct.pointf_s, %struct.pointf_s, %struct.pointf_s, %struct.point, %struct.boxf, i32, i8, i8, i8, ptr, ptr, ptr, ptr, i32, ptr, ptr, double, ptr, %struct.color_s, i32 }
%struct.GVCOMMON_s = type { ptr, ptr, i32, i8, i8, ptr, ptr, ptr, i32, ptr, i32 }
%struct.dtdisc_s_ = type { i32, i32, i32, ptr, ptr, ptr }
%struct.gvplugin_active_textlayout_s = type { ptr, i32, ptr }
%struct.gvplugin_active_layout_s = type { ptr, i32, ptr, ptr }
%struct.pointf_s = type { double, double }
%struct.point = type { i32, i32 }
%struct.boxf = type { %struct.pointf_s, %struct.pointf_s }
%struct.color_s = type { %union.anon, i32 }
%union.anon = type { [4 x double] }

; Function Attrs: nounwind uwtable
define void @gvFinalize(ptr noundef %0) #0 {
  %2 = alloca ptr, align 8
  store ptr %0, ptr %2, align 8, !tbaa !9
  %3 = load ptr, ptr %2, align 8, !tbaa !9
  %4 = getelementptr inbounds nuw %struct.GVC_s, ptr %3, i32 0, i32 19
  %5 = load ptr, ptr %4, align 8, !tbaa !38
  %6 = icmp ne ptr %5, null
  br i1 %6, label %7, label %11

7:                                                ; preds = %1
  %8 = load ptr, ptr %2, align 8, !tbaa !9
  %9 = getelementptr inbounds nuw %struct.GVC_s, ptr %8, i32 0, i32 19
  %10 = load ptr, ptr %9, align 8, !tbaa !38
  call void @gvrender_end_job(ptr noundef %10)
  br label %11

11:                                               ; preds = %7, %1
  ret void
}