; Function Attrs: nounwind uwtable
define void @gvFinalize(ptr noundef readonly captures(none) %0) local_unnamed_addr #2 {
  %2 = getelementptr inbounds nuw i8, ptr %0, i64 352
  %3 = load ptr, ptr %2, align 8, !tbaa !34
  %.not = icmp eq ptr %3, null
  br i1 %.not, label %5, label %4

4:                                                ; preds = %1
  tail call void @gvrender_end_job(ptr noundef nonnull %3) #12
  br label %5

5:                                                ; preds = %4, %1
  ret void
}